; Function Attrs: nounwind uwtable
define void @OSSL_PARAM_BLD_free(ptr noundef %0) local_unnamed_addr #0 {
  %2 = icmp eq ptr %0, null
  br i1 %2, label %12, label %3

3:                                                ; preds = %1
  %4 = getelementptr inbounds nuw i8, ptr %0, i64 16
  %5 = load ptr, ptr %4, align 8, !tbaa !3
  %6 = tail call i32 @OPENSSL_sk_num(ptr noundef %5) #7
  %7 = icmp sgt i32 %6, 0
  br i1 %7, label %.lr.ph.i, label %free_all_params.exit

.lr.ph.i:                                         ; preds = %3, %.lr.ph.i
  %.04.i = phi i32 [ %10, %.lr.ph.i ], [ 0, %3 ]
  %8 = load ptr, ptr %4, align 8, !tbaa !3
  %9 = tail call ptr @OPENSSL_sk_pop(ptr noundef %8) #7
  tail call void @CRYPTO_free(ptr noundef %9, ptr noundef nonnull @.str, i32 noundef 110) #7
  %10 = add nuw nsw i32 %.04.i, 1
  %exitcond.not.i = icmp eq i32 %10, %6
  br i1 %exitcond.not.i, label %free_all_params.exit, label %.lr.ph.i, !llvm.loop !10

free_all_params.exit:                             ; preds = %.lr.ph.i, %3
  %11 = load ptr, ptr %4, align 8, !tbaa !3
  tail call void @OPENSSL_sk_free(ptr noundef %11) #7
  tail call void @CRYPTO_free(ptr noundef nonnull %0, ptr noundef nonnull @.str, i32 noundef 119) #7
  br label %12

12:                                               ; preds = %1, %free_all_params.exit
  ret void
}